target datalayout = "e-m:e-p270:32:32-p271:32:32-p272:64:64-i64:64-i128:128-f80:128-n8:16:32:64-S128"
target triple = "x86_64-unknown-linux-gnu"

%"class.grpc_core::Activity" = type { %"class.grpc_core::Orphanable" }
%"class.grpc_core::Orphanable" = type { ptr }
%"class.grpc_core::promise_filter_detail::(anonymous namespace)::FakeActivity" = type { %"class.grpc_core::Activity", ptr }
%"class.grpc_core::Waker" = type { %"struct.grpc_core::Waker::WakeableAndArg" }
%"struct.grpc_core::Waker::WakeableAndArg" = type { ptr, i16 }

; Function Attrs: mustprogress uwtable
define internal void @_ZN9grpc_core21promise_filter_detail12_GLOBAL__N_112FakeActivity15MakeOwningWakerEv(ptr noalias sret(%"class.grpc_core::Waker") align 8 %agg.result, ptr noundef nonnull align 8 dereferenceable(16) %this) unnamed_addr #4 align 2 {
entry:
  %result.ptr = alloca ptr, align 8
  %this.addr = alloca ptr, align 8
  store ptr %agg.result, ptr %result.ptr, align 8
  store ptr %this, ptr %this.addr, align 8
  %this1 = load ptr, ptr %this.addr, align 8
  %wake_activity_ = getelementptr inbounds %"class.grpc_core::promise_filter_detail::(anonymous namespace)::FakeActivity", ptr %this1, i32 0, i32 1
  %0 = load ptr, ptr %wake_activity_, align 8
  %vtable = load ptr, ptr %0, align 8
  %vfn = getelementptr inbounds ptr, ptr %vtable, i64 5
  %1 = load ptr, ptr %vfn, align 8
  call void %1(ptr sret(%"class.grpc_core::Waker") align 8 %agg.result, ptr noundef nonnull align 8 dereferenceable(8) %0)
  ret void
}