; Function Attrs: mustprogress uwtable
define internal void @_ZN9grpc_core21promise_filter_detail12_GLOBAL__N_112FakeActivity15MakeOwningWakerEv(ptr noalias sret(%"class.grpc_core::Waker") align 8 %agg.result, ptr nocapture noundef nonnull readonly align 8 dereferenceable(16) %this) unnamed_addr #3 align 2 {
entry:
  %wake_activity_ = getelementptr inbounds i8, ptr %this, i64 8
  %0 = load ptr, ptr %wake_activity_, align 8
  %vtable = load ptr, ptr %0, align 8
  %vfn = getelementptr inbounds i8, ptr %vtable, i64 40
  %1 = load ptr, ptr %vfn, align 8
  tail call void %1(ptr sret(%"class.grpc_core::Waker") align 8 %agg.result, ptr noundef nonnull align 8 dereferenceable(8) %0)
  ret void
}